	.file	"sgl.v1.class.array.cpp"
	.text
	.section	.rodata._ZNK3sgl2v110error_code4whatEv.str1.1,"aMS",@progbits,1
.LC0:
	.string	""
	.section	.text._ZNK3sgl2v110error_code4whatEv,"axG",@progbits,_ZNK3sgl2v110error_code4whatEv,comdat
	.align 2
	.p2align 4,,15
	.weak	_ZNK3sgl2v110error_code4whatEv
	.type	_ZNK3sgl2v110error_code4whatEv, @function
_ZNK3sgl2v110error_code4whatEv:
.LFB5016:
	.cfi_startproc
	movl	$.LC0, %eax
	ret
	.cfi_endproc
.LFE5016:
	.size	_ZNK3sgl2v110error_code4whatEv, .-_ZNK3sgl2v110error_code4whatEv
	.section	.rodata._ZNK3sgl2v121file_descriptor_error4whatEv.str1.1,"aMS",@progbits,1
.LC1:
	.string	"file_descriptor_error"
	.section	.text._ZNK3sgl2v121file_descriptor_error4whatEv,"axG",@progbits,_ZNK3sgl2v121file_descriptor_error4whatEv,comdat
	.align 2
	.p2align 4,,15
	.weak	_ZNK3sgl2v121file_descriptor_error4whatEv
	.type	_ZNK3sgl2v121file_descriptor_error4whatEv, @function
_ZNK3sgl2v121file_descriptor_error4whatEv:
.LFB5371:
	.cfi_startproc
	movl	$.LC1, %eax
	ret
	.cfi_endproc
.LFE5371:
	.size	_ZNK3sgl2v121file_descriptor_error4whatEv, .-_ZNK3sgl2v121file_descriptor_error4whatEv
	.section	.rodata._ZNK3sgl2v111mkdir_error4whatEv.str1.1,"aMS",@progbits,1
.LC2:
	.string	"mkdir_error"
	.section	.text._ZNK3sgl2v111mkdir_error4whatEv,"axG",@progbits,_ZNK3sgl2v111mkdir_error4whatEv,comdat
	.align 2
	.p2align 4,,15
	.weak	_ZNK3sgl2v111mkdir_error4whatEv
	.type	_ZNK3sgl2v111mkdir_error4whatEv, @function
_ZNK3sgl2v111mkdir_error4whatEv:
.LFB5372:
	.cfi_startproc
	movl	$.LC2, %eax
	ret
	.cfi_endproc
.LFE5372:
	.size	_ZNK3sgl2v111mkdir_error4whatEv, .-_ZNK3sgl2v111mkdir_error4whatEv
	.section	.text._ZN3sgl2v111mkdir_errorD2Ev,"axG",@progbits,_ZN3sgl2v111mkdir_errorD5Ev,comdat
	.align 2
	.p2align 4,,15
	.weak	_ZN3sgl2v111mkdir_errorD2Ev
	.type	_ZN3sgl2v111mkdir_errorD2Ev, @function
_ZN3sgl2v111mkdir_errorD2Ev:
.LFB6722:
	.cfi_startproc
	movq	$_ZTVN3sgl2v111mkdir_errorE+16, (%rdi)
	jmp	_ZNSt9exceptionD2Ev
	.cfi_endproc
.LFE6722:
	.size	_ZN3sgl2v111mkdir_errorD2Ev, .-_ZN3sgl2v111mkdir_errorD2Ev
	.weak	_ZN3sgl2v111mkdir_errorD1Ev
	.set	_ZN3sgl2v111mkdir_errorD1Ev,_ZN3sgl2v111mkdir_errorD2Ev
	.section	.text._ZN3sgl2v121file_descriptor_errorD2Ev,"axG",@progbits,_ZN3sgl2v121file_descriptor_errorD5Ev,comdat
	.align 2
	.p2align 4,,15
	.weak	_ZN3sgl2v121file_descriptor_errorD2Ev
	.type	_ZN3sgl2v121file_descriptor_errorD2Ev, @function
_ZN3sgl2v121file_descriptor_errorD2Ev:
.LFB6726:
	.cfi_startproc
	movq	$_ZTVN3sgl2v121file_descriptor_errorE+16, (%rdi)
	jmp	_ZNSt9exceptionD2Ev
	.cfi_endproc
.LFE6726:
	.size	_ZN3sgl2v121file_descriptor_errorD2Ev, .-_ZN3sgl2v121file_descriptor_errorD2Ev
	.weak	_ZN3sgl2v121file_descriptor_errorD1Ev
	.set	_ZN3sgl2v121file_descriptor_errorD1Ev,_ZN3sgl2v121file_descriptor_errorD2Ev
	.section	.text._ZN3sgl2v110error_codeD2Ev,"axG",@progbits,_ZN3sgl2v110error_codeD5Ev,comdat
	.align 2
	.p2align 4,,15
	.weak	_ZN3sgl2v110error_codeD2Ev
	.type	_ZN3sgl2v110error_codeD2Ev, @function
_ZN3sgl2v110error_codeD2Ev:
.LFB6342:
	.cfi_startproc
	movq	$_ZTVN3sgl2v110error_codeE+16, (%rdi)
	jmp	_ZNSt9exceptionD2Ev
	.cfi_endproc
.LFE6342:
	.size	_ZN3sgl2v110error_codeD2Ev, .-_ZN3sgl2v110error_codeD2Ev
	.weak	_ZN3sgl2v110error_codeD1Ev
	.set	_ZN3sgl2v110error_codeD1Ev,_ZN3sgl2v110error_codeD2Ev
	.section	.text._ZN3sgl2v111mkdir_errorD0Ev,"axG",@progbits,_ZN3sgl2v111mkdir_errorD5Ev,comdat
	.align 2
	.p2align 4,,15
	.weak	_ZN3sgl2v111mkdir_errorD0Ev
	.type	_ZN3sgl2v111mkdir_errorD0Ev, @function
_ZN3sgl2v111mkdir_errorD0Ev:
.LFB6724:
	.cfi_startproc
	pushq	%rbx
	.cfi_def_cfa_offset 16
	.cfi_offset 3, -16
	movq	%rdi, %rbx
	movq	$_ZTVN3sgl2v111mkdir_errorE+16, (%rdi)
	call	_ZNSt9exceptionD2Ev
	movq	%rbx, %rdi
	movl	$8, %esi
	popq	%rbx
	.cfi_def_cfa_offset 8
	jmp	_ZdlPvm
	.cfi_endproc
.LFE6724:
	.size	_ZN3sgl2v111mkdir_errorD0Ev, .-_ZN3sgl2v111mkdir_errorD0Ev
	.section	.text._ZN3sgl2v121file_descriptor_errorD0Ev,"axG",@progbits,_ZN3sgl2v121file_descriptor_errorD5Ev,comdat
	.align 2
	.p2align 4,,15
	.weak	_ZN3sgl2v121file_descriptor_errorD0Ev
	.type	_ZN3sgl2v121file_descriptor_errorD0Ev, @function
_ZN3sgl2v121file_descriptor_errorD0Ev:
.LFB6728:
	.cfi_startproc
	pushq	%rbx
	.cfi_def_cfa_offset 16
	.cfi_offset 3, -16
	movq	%rdi, %rbx
	movq	$_ZTVN3sgl2v121file_descriptor_errorE+16, (%rdi)
	call	_ZNSt9exceptionD2Ev
	movq	%rbx, %rdi
	movl	$16, %esi
	popq	%rbx
	.cfi_def_cfa_offset 8
	jmp	_ZdlPvm
	.cfi_endproc
.LFE6728:
	.size	_ZN3sgl2v121file_descriptor_errorD0Ev, .-_ZN3sgl2v121file_descriptor_errorD0Ev
	.section	.text._ZN3sgl2v110error_codeD0Ev,"axG",@progbits,_ZN3sgl2v110error_codeD5Ev,comdat
	.align 2
	.p2align 4,,15
	.weak	_ZN3sgl2v110error_codeD0Ev
	.type	_ZN3sgl2v110error_codeD0Ev, @function
_ZN3sgl2v110error_codeD0Ev:
.LFB6344:
	.cfi_startproc
	pushq	%rbx
	.cfi_def_cfa_offset 16
	.cfi_offset 3, -16
	movq	%rdi, %rbx
	movq	$_ZTVN3sgl2v110error_codeE+16, (%rdi)
	call	_ZNSt9exceptionD2Ev
	movq	%rbx, %rdi
	movl	$16, %esi
	popq	%rbx
	.cfi_def_cfa_offset 8
	jmp	_ZdlPvm
	.cfi_endproc
.LFE6344:
	.size	_ZN3sgl2v110error_codeD0Ev, .-_ZN3sgl2v110error_codeD0Ev
	.text
	.p2align 4,,15
	.type	_ZN3sgl2v111generate_bmIN9__gnu_cxx17__normal_iteratorIPjSt6vectorIjSaIjEEEElEEvT_S9_RKT0_.isra.53, @function
_ZN3sgl2v111generate_bmIN9__gnu_cxx17__normal_iteratorIPjSt6vectorIjSaIjEEEElEEvT_S9_RKT0_.isra.53:
.LFB6804:
	.cfi_startproc
	pushq	%rbx
	.cfi_def_cfa_offset 16
	.cfi_offset 3, -16
	movl	%edx, %ecx
	movl	$1, %edx
	subq	$4888, %rsp
	.cfi_def_cfa_offset 4904
	movq	%rcx, -120(%rsp)
	.p2align 4,,10
	.p2align 3
.L15:
	movq	%rcx, %rax
	shrq	$30, %rax
	xorq	%rcx, %rax
	imulq	$1812433253, %rax, %rax
	leal	(%rax,%rdx), %ecx
	movq	%rcx, -120(%rsp,%rdx,8)
	addq	$1, %rdx
	cmpq	$624, %rdx
	jne	.L15
	leaq	-120(%rsp), %rax
	leaq	1696(%rsp), %r10
	movl	$2567483615, %r8d
	leaq	3168(%rax), %r9
	cmpq	%rsi, %rdi
	jne	.L28
	jmp	.L14
	.p2align 4,,10
	.p2align 3
.L37:
	movq	-120(%rsp,%rdx,8), %r11
	addq	$1, %rdx
.L18:
	movq	%r11, %rcx
	addq	$4, %rdi
	shrq	$11, %rcx
	movl	%ecx, %eax
	xorq	%r11, %rax
	movq	%rax, %rcx
	salq	$7, %rcx
	andl	$2636928640, %ecx
	xorq	%rcx, %rax
	movq	%rax, %rcx
	salq	$15, %rcx
	andl	$4022730752, %ecx
	xorq	%rcx, %rax
	movq	%rax, %rcx
	shrq	$18, %rcx
	xorq	%rcx, %rax
	movl	%eax, -4(%rdi)
	cmpq	%rdi, %rsi
	je	.L14
.L28:
	cmpq	$624, %rdx
	jne	.L37
	leaq	-120(%rsp), %rax
	movq	-120(%rsp), %rbx
	movq	%rax, %rdx
	.p2align 4,,10
	.p2align 3
.L19:
	andq	$-2147483648, %rbx
	movq	%rbx, %rcx
	movq	8(%rdx), %rbx
	movq	%rbx, %r11
	andl	$2147483647, %r11d
	orq	%rcx, %r11
	movq	%r11, %rcx
	shrq	%rcx
	xorq	3176(%rdx), %rcx
	andl	$1, %r11d
	je	.L20
	xorq	%r8, %rcx
	addq	$8, %rdx
	movq	%rcx, -8(%rdx)
	cmpq	%rdx, %r10
	jne	.L19
.L21:
	movq	1696(%rsp), %r11
	.p2align 4,,10
	.p2align 3
.L23:
	movq	%r11, %rdx
	movq	1824(%rax), %r11
	andq	$-2147483648, %rdx
	movq	%r11, %rcx
	andl	$2147483647, %ecx
	orq	%rdx, %rcx
	movq	%rcx, %rdx
	shrq	%rdx
	xorq	(%rax), %rdx
	andl	$1, %ecx
	je	.L24
	xorq	%r8, %rdx
	addq	$8, %rax
	movq	%rdx, 1808(%rax)
	cmpq	%r9, %rax
	jne	.L23
.L25:
	movq	-120(%rsp), %r11
	movq	4864(%rsp), %rax
	movq	%r11, %rdx
	andq	$-2147483648, %rax
	andl	$2147483647, %edx
	orq	%rdx, %rax
	movq	%rax, %rdx
	shrq	%rdx
	xorq	3048(%rsp), %rdx
	testb	$1, %al
	je	.L27
	xorq	%r8, %rdx
.L27:
	movq	%rdx, 4864(%rsp)
	movl	$1, %edx
	jmp	.L18
	.p2align 4,,10
	.p2align 3
.L24:
	movq	%rdx, 1816(%rax)
	addq	$8, %rax
	cmpq	%r9, %rax
	jne	.L23
	jmp	.L25
	.p2align 4,,10
	.p2align 3
.L20:
	movq	%rcx, (%rdx)
	addq	$8, %rdx
	cmpq	%rdx, %r10
	jne	.L19
	jmp	.L21
	.p2align 4,,10
	.p2align 3
.L14:
	addq	$4888, %rsp
	.cfi_def_cfa_offset 16
	popq	%rbx
	.cfi_def_cfa_offset 8
	ret
	.cfi_endproc
.LFE6804:
	.size	_ZN3sgl2v111generate_bmIN9__gnu_cxx17__normal_iteratorIPjSt6vectorIjSaIjEEEElEEvT_S9_RKT0_.isra.53, .-_ZN3sgl2v111generate_bmIN9__gnu_cxx17__normal_iteratorIPjSt6vectorIjSaIjEEEElEEvT_S9_RKT0_.isra.53
	.p2align 4,,15
	.type	_ZSt13__adjust_heapIPmlmN9__gnu_cxx5__ops15_Iter_less_iterEEvT_T0_S5_T1_T2_.constprop.82, @function
_ZSt13__adjust_heapIPmlmN9__gnu_cxx5__ops15_Iter_less_iterEEvT_T0_S5_T1_T2_.constprop.82:
.LFB6824:
	.cfi_startproc
	leaq	-1(%rdx), %rax
	pushq	%rbp
	.cfi_def_cfa_offset 16
	.cfi_offset 6, -16
	movq	%rdx, %rbp
	pushq	%rbx
	.cfi_def_cfa_offset 24
	.cfi_offset 3, -24
	movq	%rax, %rbx
	andl	$1, %ebp
	shrq	$63, %rbx
	addq	%rax, %rbx
	sarq	%rbx
	cmpq	%rbx, %rsi
	jge	.L39
	movq	%rsi, %r10
	jmp	.L40
	.p2align 4,,10
	.p2align 3
.L54:
	subq	$1, %r8
	leaq	(%rdi,%r8,8), %r9
	movq	(%r9), %rax
	movq	%rax, (%rdi,%r10,8)
	cmpq	%rbx, %r8
	jge	.L42
.L43:
	movq	%r8, %r10
.L40:
	leaq	1(%r10), %rax
	leaq	(%rax,%rax), %r8
	salq	$4, %rax
	leaq	(%rdi,%rax), %r9
	movq	(%r9), %r11
	cmpq	-8(%rdi,%rax), %r11
	jb	.L54
	movq	%r11, (%rdi,%r10,8)
	cmpq	%rbx, %r8
	jl	.L43
.L42:
	testq	%rbp, %rbp
	je	.L48
.L44:
	leaq	-1(%r8), %rax
	movq	%rax, %rdx
	shrq	$63, %rdx
	addq	%rax, %rdx
	sarq	%rdx
	cmpq	%rsi, %r8
	jle	.L45
	movq	(%rdi,%rdx,8), %r10
	cmpq	%r10, %rcx
	ja	.L46
	jmp	.L45
	.p2align 4,,10
	.p2align 3
.L47:
	movq	(%rdi,%rax,8), %r10
	movq	%rdx, %r8
	movq	%rax, %rdx
	cmpq	%rcx, %r10
	jnb	.L45
.L46:
	movq	%r10, (%rdi,%r8,8)
	leaq	-1(%rdx), %r8
	leaq	(%rdi,%rdx,8), %r9
	movq	%r8, %rax
	shrq	$63, %rax
	addq	%r8, %rax
	sarq	%rax
	cmpq	%rdx, %rsi
	jl	.L47
.L45:
	movq	%rcx, (%r9)
	popq	%rbx
	.cfi_remember_state
	.cfi_def_cfa_offset 16
	popq	%rbp
	.cfi_def_cfa_offset 8
	ret
	.p2align 4,,10
	.p2align 3
.L39:
	.cfi_restore_state
	leaq	(%rdi,%rsi,8), %r9
	movq	%rsi, %r8
	testq	%rbp, %rbp
	jne	.L45
	.p2align 4,,10
	.p2align 3
.L48:
	leaq	-2(%rdx), %rax
	movq	%rax, %rdx
	shrq	$63, %rdx
	addq	%rax, %rdx
	sarq	%rdx
	cmpq	%rdx, %r8
	jne	.L44
	leaq	2(%r8,%r8), %r8
	movq	-8(%rdi,%r8,8), %rax
	subq	$1, %r8
	movq	%rax, (%r9)
	leaq	(%rdi,%r8,8), %r9
	jmp	.L44
	.cfi_endproc
.LFE6824:
	.size	_ZSt13__adjust_heapIPmlmN9__gnu_cxx5__ops15_Iter_less_iterEEvT_T0_S5_T1_T2_.constprop.82, .-_ZSt13__adjust_heapIPmlmN9__gnu_cxx5__ops15_Iter_less_iterEEvT_T0_S5_T1_T2_.constprop.82
	.p2align 4,,15
	.type	_ZSt13__introselectIPmlN9__gnu_cxx5__ops15_Iter_less_iterEEvT_S4_S4_T0_T1_.isra.71, @function
_ZSt13__introselectIPmlN9__gnu_cxx5__ops15_Iter_less_iterEEvT_S4_S4_T0_T1_.isra.71:
.LFB6822:
	.cfi_startproc
	pushq	%r15
	.cfi_def_cfa_offset 16
	.cfi_offset 15, -16
	pushq	%r14
	.cfi_def_cfa_offset 24
	.cfi_offset 14, -24
	pushq	%r13
	.cfi_def_cfa_offset 32
	.cfi_offset 13, -32
	pushq	%r12
	.cfi_def_cfa_offset 40
	.cfi_offset 12, -40
	movq	%rsi, %r12
	pushq	%rbp
	.cfi_def_cfa_offset 48
	.cfi_offset 6, -48
	movq	%rdx, %rbp
	pushq	%rbx
	.cfi_def_cfa_offset 56
	.cfi_offset 3, -56
	movq	%rbp, %rax
	movq	%rdi, %rbx
	subq	%rbx, %rax
	subq	$24, %rsp
	.cfi_def_cfa_offset 80
	cmpq	$24, %rax
	jle	.L57
	.p2align 4,,10
	.p2align 3
.L100:
	testq	%rcx, %rcx
	je	.L98
	sarq	$4, %rax
	movq	8(%rbx), %rdi
	subq	$1, %rcx
	movq	-8(%rbp), %r8
	leaq	(%rbx,%rax,8), %r9
	movq	(%rbx), %rsi
	leaq	8(%rbx), %rax
	movq	(%r9), %rdx
	cmpq	%rdx, %rdi
	jnb	.L67
	cmpq	%r8, %rdx
	jb	.L73
	cmpq	%r8, %rdi
	jnb	.L97
.L96:
	movq	%r8, (%rbx)
	movq	%rsi, -8(%rbp)
	movq	(%rbx), %rdi
.L69:
	movq	%rbp, %rdx
	.p2align 4,,10
	.p2align 3
.L72:
	movq	(%rax), %r8
	cmpq	%rdi, %r8
	jb	.L74
	subq	$8, %rdx
	cmpq	%rsi, %rdi
	jnb	.L75
	.p2align 4,,10
	.p2align 3
.L76:
	subq	$8, %rdx
	movq	(%rdx), %rsi
	cmpq	%rdi, %rsi
	ja	.L76
.L75:
	cmpq	%rdx, %rax
	jnb	.L99
	movq	%rsi, (%rax)
	movq	-8(%rdx), %rsi
	movq	%r8, (%rdx)
	movq	(%rbx), %rdi
.L74:
	addq	$8, %rax
	jmp	.L72
	.p2align 4,,10
	.p2align 3
.L99:
	cmpq	%rax, %r12
	cmovb	%rax, %rbp
	cmovnb	%rax, %rbx
	movq	%rbp, %rax
	subq	%rbx, %rax
	cmpq	$24, %rax
	jg	.L100
.L57:
	cmpq	%rbx, %rbp
	je	.L55
	leaq	8(%rbx), %r12
	cmpq	%r12, %rbp
	je	.L55
	movl	$8, %r13d
	jmp	.L86
	.p2align 4,,10
	.p2align 3
.L101:
	cmpq	%r12, %rbx
	je	.L82
	movq	%r12, %rdx
	leaq	(%rbx,%r13), %rdi
	movq	%rbx, %rsi
	subq	%rbx, %rdx
	call	memmove
.L82:
	addq	$8, %r12
	movq	%r14, (%rbx)
	cmpq	%r12, %rbp
	je	.L55
.L86:
	movq	(%r12), %r14
	cmpq	(%rbx), %r14
	jb	.L101
	movq	-8(%r12), %rdx
	leaq	-8(%r12), %rax
	cmpq	%r14, %rdx
	ja	.L85
	jmp	.L102
	.p2align 4,,10
	.p2align 3
.L89:
	movq	%rcx, %rax
.L85:
	movq	%rdx, 8(%rax)
	movq	-8(%rax), %rdx
	leaq	-8(%rax), %rcx
	cmpq	%rdx, %r14
	jb	.L89
.L84:
	addq	$8, %r12
	movq	%r14, (%rax)
	cmpq	%r12, %rbp
	jne	.L86
.L55:
	addq	$24, %rsp
	.cfi_remember_state
	.cfi_def_cfa_offset 56
	popq	%rbx
	.cfi_def_cfa_offset 48
	popq	%rbp
	.cfi_def_cfa_offset 40
	popq	%r12
	.cfi_def_cfa_offset 32
	popq	%r13
	.cfi_def_cfa_offset 24
	popq	%r14
	.cfi_def_cfa_offset 16
	popq	%r15
	.cfi_def_cfa_offset 8
	ret
	.p2align 4,,10
	.p2align 3
.L67:
	.cfi_restore_state
	cmpq	%r8, %rdi
	jb	.L97
	cmpq	%r8, %rdx
	jb	.L96
.L73:
	movq	%rdx, (%rbx)
	movq	%rsi, (%r9)
	movq	(%rbx), %rdi
	movq	-8(%rbp), %rsi
	jmp	.L69
	.p2align 4,,10
	.p2align 3
.L97:
	movq	%rdi, 8(%rsp)
	movq	8(%rsp), %xmm0
	movq	%rsi, 8(%rsp)
	movhps	8(%rsp), %xmm0
	movups	%xmm0, (%rbx)
	movq	-8(%rbp), %rsi
	jmp	.L69
.L98:
	leaq	8(%r12), %r13
	movq	%r13, %rax
	subq	%rbx, %rax
	movq	%rax, 8(%rsp)
	cmpq	$8, %rax
	jle	.L62
	movq	8(%rsp), %r15
	movl	$2, %ecx
	sarq	$3, %r15
	leaq	-2(%r15), %rax
	cqto
	idivq	%rcx
	movq	%rax, %r14
	jmp	.L63
	.p2align 4,,10
	.p2align 3
.L103:
	subq	$1, %r14
.L63:
	movq	(%rbx,%r14,8), %rcx
	movq	%r15, %rdx
	movq	%r14, %rsi
	movq	%rbx, %rdi
	call	_ZSt13__adjust_heapIPmlmN9__gnu_cxx5__ops15_Iter_less_iterEEvT_T0_S5_T1_T2_.constprop.82
	testq	%r14, %r14
	jne	.L103
.L62:
	movq	8(%rsp), %r14
	movq	(%rbx), %rax
	sarq	$3, %r14
	cmpq	%r13, %rbp
	ja	.L66
	jmp	.L65
	.p2align 4,,10
	.p2align 3
.L64:
	addq	$8, %r13
	cmpq	%r13, %rbp
	jbe	.L65
.L66:
	movq	0(%r13), %rcx
	cmpq	%rax, %rcx
	jnb	.L64
	movq	%rax, 0(%r13)
	movq	%r14, %rdx
	xorl	%esi, %esi
	movq	%rbx, %rdi
	addq	$8, %r13
	call	_ZSt13__adjust_heapIPmlmN9__gnu_cxx5__ops15_Iter_less_iterEEvT_T0_S5_T1_T2_.constprop.82
	movq	(%rbx), %rax
	cmpq	%r13, %rbp
	ja	.L66
.L65:
	movq	(%r12), %rdx
	movq	%rdx, (%rbx)
	movq	%rax, (%r12)
	jmp	.L55
.L102:
	movq	%r12, %rax
	jmp	.L84
	.cfi_endproc
.LFE6822:
	.size	_ZSt13__introselectIPmlN9__gnu_cxx5__ops15_Iter_less_iterEEvT_S4_S4_T0_T1_.isra.71, .-_ZSt13__introselectIPmlN9__gnu_cxx5__ops15_Iter_less_iterEEvT_S4_S4_T0_T1_.isra.71
	.section	.text._ZNSt11char_traitsIcE6lengthEPKc,"axG",@progbits,_ZNSt11char_traitsIcE6lengthEPKc,comdat
	.p2align 4,,15
	.weak	_ZNSt11char_traitsIcE6lengthEPKc
	.type	_ZNSt11char_traitsIcE6lengthEPKc, @function
_ZNSt11char_traitsIcE6lengthEPKc:
.LFB403:
	.cfi_startproc
	jmp	strlen
	.cfi_endproc
.LFE403:
	.size	_ZNSt11char_traitsIcE6lengthEPKc, .-_ZNSt11char_traitsIcE6lengthEPKc
	.section	.text._ZN3sgl2v115file_descriptorC2EPKcij,"axG",@progbits,_ZN3sgl2v115file_descriptorC5EPKcij,comdat
	.align 2
	.p2align 4,,15
	.weak	_ZN3sgl2v115file_descriptorC2EPKcij
	.type	_ZN3sgl2v115file_descriptorC2EPKcij, @function
_ZN3sgl2v115file_descriptorC2EPKcij:
.LFB5380:
	.cfi_startproc
	pushq	%rbx
	.cfi_def_cfa_offset 16
	.cfi_offset 3, -16
	xorl	%eax, %eax
	movq	%rdi, %rbx
	movq	%rsi, %rdi
	movl	%edx, %esi
	movl	%ecx, %edx
	call	open
	movl	%eax, (%rbx)
	cmpl	$-1, %eax
	je	.L108
	popq	%rbx
	.cfi_remember_state
	.cfi_def_cfa_offset 8
	ret
.L108:
	.cfi_restore_state
	movl	$16, %edi
	call	__cxa_allocate_exception
	movq	%rax, %rbx
	call	__errno_location
	movq	$_ZTVN3sgl2v121file_descriptor_errorE+16, (%rbx)
	movl	$_ZN3sgl2v121file_descriptor_errorD1Ev, %edx
	movq	%rbx, %rdi
	movl	(%rax), %eax
	movl	$_ZTIN3sgl2v121file_descriptor_errorE, %esi
	movl	%eax, 8(%rbx)
	call	__cxa_throw
	.cfi_endproc
.LFE5380:
	.size	_ZN3sgl2v115file_descriptorC2EPKcij, .-_ZN3sgl2v115file_descriptorC2EPKcij
	.weak	_ZN3sgl2v115file_descriptorC1EPKcij
	.set	_ZN3sgl2v115file_descriptorC1EPKcij,_ZN3sgl2v115file_descriptorC2EPKcij
	.text
	.p2align 4,,15
	.globl	_ZN3sgl2v15mkdirEPKcj
	.type	_ZN3sgl2v15mkdirEPKcj, @function
_ZN3sgl2v15mkdirEPKcj:
.LFB5401:
	.cfi_startproc
	subq	$8, %rsp
	.cfi_def_cfa_offset 16
	call	mkdir
	testl	%eax, %eax
	jne	.L112
	addq	$8, %rsp
	.cfi_remember_state
	.cfi_def_cfa_offset 8
	ret
.L112:
	.cfi_restore_state
	movl	$8, %edi
	call	__cxa_allocate_exception
	movl	$_ZN3sgl2v111mkdir_errorD1Ev, %edx
	movl	$_ZTIN3sgl2v111mkdir_errorE, %esi
	movq	$_ZTVN3sgl2v111mkdir_errorE+16, (%rax)
	movq	%rax, %rdi
	call	__cxa_throw
	.cfi_endproc
.LFE5401:
	.size	_ZN3sgl2v15mkdirEPKcj, .-_ZN3sgl2v15mkdirEPKcj
	.p2align 4,,15
	.globl	_ZN3sgl2v112page_alignedEm
	.type	_ZN3sgl2v112page_alignedEm, @function
_ZN3sgl2v112page_alignedEm:
.LFB5413:
	.cfi_startproc
	pushq	%rbx
	.cfi_def_cfa_offset 16
	.cfi_offset 3, -16
	movq	%rdi, %rbx
	movl	$30, %edi
	call	sysconf
	movq	%rax, %rdi
	negq	%rdi
	andq	%rbx, %rdi
	popq	%rbx
	.cfi_def_cfa_offset 8
	addq	%rdi, %rax
	ret
	.cfi_endproc
.LFE5413:
	.size	_ZN3sgl2v112page_alignedEm, .-_ZN3sgl2v112page_alignedEm
	.section	.rodata.str1.1,"aMS",@progbits,1
.LC5:
	.string	"median"
.LC6:
	.string	"\t\t"
.LC7:
	.string	"avg"
.LC8:
	.string	"dev"
.LC9:
	.string	"\t"
	.section	.text.unlikely,"ax",@progbits
.LCOLDB10:
	.section	.text.startup,"ax",@progbits
.LHOTB10:
	.p2align 4,,15
	.globl	main
	.type	main, @function
main:
.LFB5820:
	.cfi_startproc
	.cfi_personality 0x3,__gxx_personality_v0
	.cfi_lsda 0x3,.LLSDA5820
	pushq	%r15
	.cfi_def_cfa_offset 16
	.cfi_offset 15, -16
	movl	$4000000000, %edi
	pushq	%r14
	.cfi_def_cfa_offset 24
	.cfi_offset 14, -24
	pushq	%r13
	.cfi_def_cfa_offset 32
	.cfi_offset 13, -32
	pushq	%r12
	.cfi_def_cfa_offset 40
	.cfi_offset 12, -40
	pushq	%rbp
	.cfi_def_cfa_offset 48
	.cfi_offset 6, -48
	pushq	%rbx
	.cfi_def_cfa_offset 56
	.cfi_offset 3, -56
	movl	$4000000000, %ebx
	subq	$56, %rsp
	.cfi_def_cfa_offset 112
.LEHB0:
	call	_Znwm
.LEHE0:
	movq	%rbx, %rdx
	xorl	%esi, %esi
	movq	%rax, %rbp
	movq	%rax, %rdi
	call	memset
	movq	%rbp, %rdi
	leaq	0(%rbp,%rbx), %rsi
	movl	$1000000000, %edx
	call	_ZN3sgl2v111generate_bmIN9__gnu_cxx17__normal_iteratorIPjSt6vectorIjSaIjEEEElEEvT_S9_RKT0_.isra.53
	call	_ZNSt6chrono3_V212system_clock3nowEv
	movl	$800, %edi
.LEHB1:
	call	_Znwm
.LEHE1:
	movq	%rax, %r14
	movl	$800, %edi
	leaq	800(%rax), %rax
	movq	%rax, 8(%rsp)
.LEHB2:
	call	_Znwm
.LEHE2:
	movq	%rax, %r15
	leaq	800(%rax), %rax
	xorl	%r12d, %r12d
	movq	%rax, 16(%rsp)
.L118:
	call	_ZNSt6chrono3_V212system_clock3nowEv
	movq	%rbx, %rdi
	movq	%rax, %r13
.LEHB3:
	call	_Znwm
	movq	%rbx, %rdx
	xorl	%esi, %esi
	movq	%rax, %rdi
	call	memset
	movq	%rax, %rcx
	xorl	%eax, %eax
	.p2align 4,,10
	.p2align 3
.L116:
	movdqu	0(%rbp,%rax), %xmm6
	movups	%xmm6, (%rcx,%rax)
	addq	$16, %rax
	cmpq	%rbx, %rax
	jne	.L116
	movq	%rcx, %rdi
	call	_ZdlPv
	call	_ZNSt6chrono3_V212system_clock3nowEv
	subq	%r13, %rax
	movq	%rax, (%r14,%r12,8)
	call	_ZNSt6chrono3_V212system_clock3nowEv
	movq	%rbx, %rdi
	movq	%rax, %r13
	call	_Znwm
	xorl	%edx, %edx
	.p2align 4,,10
	.p2align 3
.L117:
	movdqu	0(%rbp,%rdx), %xmm7
	movups	%xmm7, (%rax,%rdx)
	addq	$16, %rdx
	cmpq	%rbx, %rdx
	jne	.L117
	movq	%rax, %rdi
	call	_ZdlPv
	call	_ZNSt6chrono3_V212system_clock3nowEv
	subq	%r13, %rax
	movq	%rax, (%r15,%r12,8)
	addq	$1, %r12
	cmpq	$100, %r12
	jne	.L118
	movq	%r14, %r12
	movq	%r14, %rax
	pxor	%xmm0, %xmm0
.L119:
	movdqu	(%rax), %xmm5
	addq	$16, %rax
	paddq	%xmm5, %xmm0
	cmpq	%rax, 8(%rsp)
	jne	.L119
	movdqa	%xmm0, %xmm1
	movq	%r15, %r13
	movabsq	$2951479051793528259, %rcx
	psrldq	$8, %xmm1
	paddq	%xmm1, %xmm0
	movq	%xmm0, %rdx
	pxor	%xmm0, %xmm0
	shrq	$2, %rdx
	movq	%rdx, %rax
	mulq	%rcx
	movq	%r15, %rax
	shrq	$2, %rdx
	movq	%rdx, 24(%rsp)
.L120:
	movdqu	(%rax), %xmm5
	addq	$16, %rax
	paddq	%xmm5, %xmm0
	cmpq	%rax, 16(%rsp)
	jne	.L120
	movdqa	%xmm0, %xmm1
	leaq	400(%r14), %rsi
	movq	%r14, %rdi
	movabsq	$2951479051793528259, %rcx
	psrldq	$8, %xmm1
	paddq	%xmm1, %xmm0
	movq	%xmm0, %rdx
	shrq	$2, %rdx
	movq	%rdx, %rax
	mulq	%rcx
	movl	$12, %ecx
	shrq	$2, %rdx
	movq	%rdx, 32(%rsp)
	movq	8(%rsp), %rdx
	call	_ZSt13__introselectIPmlN9__gnu_cxx5__ops15_Iter_less_iterEEvT_S4_S4_T0_T1_.isra.71
	movq	16(%rsp), %rdx
	movl	$12, %ecx
	movq	%r15, %rdi
	leaq	400(%r15), %rsi
	call	_ZSt13__introselectIPmlN9__gnu_cxx5__ops15_Iter_less_iterEEvT_S4_S4_T0_T1_.isra.71
	movq	400(%r15), %rax
	movq	24(%rsp), %xmm4
	pxor	%xmm0, %xmm0
	movq	400(%r14), %rbx
	movq	%rax, 40(%rsp)
	punpcklqdq	%xmm4, %xmm4
.L121:
	movdqu	(%r12), %xmm2
	addq	$16, %r12
	psubq	%xmm4, %xmm2
	movdqa	%xmm2, %xmm1
	movdqa	%xmm2, %xmm3
	psrlq	$32, %xmm1
	pmuludq	%xmm2, %xmm3
	pmuludq	%xmm2, %xmm1
	paddq	%xmm1, %xmm1
	psllq	$32, %xmm1
	paddq	%xmm3, %xmm1
	paddq	%xmm1, %xmm0
	cmpq	%r12, 8(%rsp)
	jne	.L121
	movdqa	%xmm0, %xmm1
	pxor	%xmm5, %xmm5
	movabsq	$2951479051793528259, %rcx
	psrldq	$8, %xmm1
	paddq	%xmm1, %xmm0
	movq	%xmm0, %rdx
	pxor	%xmm0, %xmm0
	shrq	$2, %rdx
	movq	%rdx, %rax
	mulq	%rcx
	shrq	$2, %rdx
	cvtsi2sdq	%rdx, %xmm0
	ucomisd	%xmm0, %xmm5
	sqrtsd	%xmm0, %xmm1
	ja	.L145
.L122:
	movsd	.LC4(%rip), %xmm3
	comisd	%xmm3, %xmm1
	jnb	.L123
	cvttsd2siq	%xmm1, %r12
.L124:
	movq	32(%rsp), %xmm5
	pxor	%xmm0, %xmm0
	punpcklqdq	%xmm5, %xmm5
.L125:
	movdqu	0(%r13), %xmm2
	addq	$16, %r13
	psubq	%xmm5, %xmm2
	movdqa	%xmm2, %xmm1
	movdqa	%xmm2, %xmm4
	psrlq	$32, %xmm1
	pmuludq	%xmm2, %xmm4
	pmuludq	%xmm2, %xmm1
	paddq	%xmm1, %xmm1
	psllq	$32, %xmm1
	paddq	%xmm4, %xmm1
	paddq	%xmm1, %xmm0
	cmpq	%r13, 16(%rsp)
	jne	.L125
	movdqa	%xmm0, %xmm1
	pxor	%xmm5, %xmm5
	movabsq	$2951479051793528259, %rcx
	psrldq	$8, %xmm1
	paddq	%xmm1, %xmm0
	movq	%xmm0, %rdx
	pxor	%xmm0, %xmm0
	shrq	$2, %rdx
	movq	%rdx, %rax
	mulq	%rcx
	shrq	$2, %rdx
	cvtsi2sdq	%rdx, %xmm0
	ucomisd	%xmm0, %xmm5
	sqrtsd	%xmm0, %xmm1
	ja	.L146
.L126:
	comisd	%xmm3, %xmm1
	jnb	.L127
	cvttsd2siq	%xmm1, %r13
.L128:
	movl	$.LC5, %edi
	call	_ZNSt11char_traitsIcE6lengthEPKc
	movl	$.LC5, %esi
	movl	$_ZSt4cout, %edi
	movq	%rax, %rdx
	call	_ZSt16__ostream_insertIcSt11char_traitsIcEERSt13basic_ostreamIT_T0_ES6_PKS3_l
	movl	$.LC6, %edi
	call	_ZNSt11char_traitsIcE6lengthEPKc
	movl	$.LC6, %esi
	movl	$_ZSt4cout, %edi
	movq	%rax, %rdx
	call	_ZSt16__ostream_insertIcSt11char_traitsIcEERSt13basic_ostreamIT_T0_ES6_PKS3_l
	movl	$.LC7, %edi
	call	_ZNSt11char_traitsIcE6lengthEPKc
	movl	$.LC7, %esi
	movl	$_ZSt4cout, %edi
	movq	%rax, %rdx
	call	_ZSt16__ostream_insertIcSt11char_traitsIcEERSt13basic_ostreamIT_T0_ES6_PKS3_l
	movl	$.LC6, %edi
	call	_ZNSt11char_traitsIcE6lengthEPKc
	movl	$.LC6, %esi
	movl	$_ZSt4cout, %edi
	movq	%rax, %rdx
	call	_ZSt16__ostream_insertIcSt11char_traitsIcEERSt13basic_ostreamIT_T0_ES6_PKS3_l
	movl	$.LC8, %edi
	call	_ZNSt11char_traitsIcE6lengthEPKc
	movl	$.LC8, %esi
	movl	$_ZSt4cout, %edi
	movq	%rax, %rdx
	call	_ZSt16__ostream_insertIcSt11char_traitsIcEERSt13basic_ostreamIT_T0_ES6_PKS3_l
	movl	$_ZSt4cout, %edi
	call	_ZSt4endlIcSt11char_traitsIcEERSt13basic_ostreamIT_T0_ES6_
	movq	%rbx, %rsi
	movl	$_ZSt4cout, %edi
	call	_ZNSo9_M_insertImEERSoT_
	movl	$.LC9, %edi
	movq	%rax, %rbx
	call	_ZNSt11char_traitsIcE6lengthEPKc
	movl	$.LC9, %esi
	movq	%rbx, %rdi
	movq	%rax, %rdx
	call	_ZSt16__ostream_insertIcSt11char_traitsIcEERSt13basic_ostreamIT_T0_ES6_PKS3_l
	movq	24(%rsp), %rsi
	movq	%rbx, %rdi
	call	_ZNSo9_M_insertImEERSoT_
	movl	$.LC9, %edi
	movq	%rax, %rbx
	call	_ZNSt11char_traitsIcE6lengthEPKc
	movl	$.LC9, %esi
	movq	%rbx, %rdi
	movq	%rax, %rdx
	call	_ZSt16__ostream_insertIcSt11char_traitsIcEERSt13basic_ostreamIT_T0_ES6_PKS3_l
	movq	%r12, %rsi
	movq	%rbx, %rdi
	call	_ZNSo9_M_insertImEERSoT_
	movq	%rax, %rdi
	call	_ZSt4endlIcSt11char_traitsIcEERSt13basic_ostreamIT_T0_ES6_
	movq	40(%rsp), %rsi
	movl	$_ZSt4cout, %edi
	call	_ZNSo9_M_insertImEERSoT_
	movl	$.LC9, %edi
	movq	%rax, %rbx
	call	_ZNSt11char_traitsIcE6lengthEPKc
	movl	$.LC9, %esi
	movq	%rbx, %rdi
	movq	%rax, %rdx
	call	_ZSt16__ostream_insertIcSt11char_traitsIcEERSt13basic_ostreamIT_T0_ES6_PKS3_l
	movq	32(%rsp), %rsi
	movq	%rbx, %rdi
	call	_ZNSo9_M_insertImEERSoT_
	movl	$.LC9, %edi
	movq	%rax, %rbx
	call	_ZNSt11char_traitsIcE6lengthEPKc
	movl	$.LC9, %esi
	movq	%rbx, %rdi
	movq	%rax, %rdx
	call	_ZSt16__ostream_insertIcSt11char_traitsIcEERSt13basic_ostreamIT_T0_ES6_PKS3_l
	movq	%r13, %rsi
	movq	%rbx, %rdi
	call	_ZNSo9_M_insertImEERSoT_
	movq	%rax, %rdi
	call	_ZSt4endlIcSt11char_traitsIcEERSt13basic_ostreamIT_T0_ES6_
.LEHE3:
	movq	%r15, %rdi
	call	_ZdlPv
	movq	%r14, %rdi
	call	_ZdlPv
	movq	%rbp, %rdi
	call	_ZdlPv
	addq	$56, %rsp
	.cfi_remember_state
	.cfi_def_cfa_offset 56
	xorl	%eax, %eax
	popq	%rbx
	.cfi_def_cfa_offset 48
	popq	%rbp
	.cfi_def_cfa_offset 40
	popq	%r12
	.cfi_def_cfa_offset 32
	popq	%r13
	.cfi_def_cfa_offset 24
	popq	%r14
	.cfi_def_cfa_offset 16
	popq	%r15
	.cfi_def_cfa_offset 8
	ret
.L123:
	.cfi_restore_state
	subsd	%xmm3, %xmm1
	cvttsd2siq	%xmm1, %r12
	btcq	$63, %r12
	jmp	.L124
.L127:
	subsd	%xmm3, %xmm1
	cvttsd2siq	%xmm1, %r13
	btcq	$63, %r13
	jmp	.L128
.L145:
	movsd	%xmm1, 8(%rsp)
	call	sqrt
	movsd	8(%rsp), %xmm1
	jmp	.L122
.L146:
	movsd	%xmm1, 8(%rsp)
	call	sqrt
	movsd	.LC4(%rip), %xmm3
	movsd	8(%rsp), %xmm1
	jmp	.L126
.L132:
	movq	%rax, %rbx
	jmp	.L131
.L134:
	movq	%rax, %rbx
	jmp	.L129
.L133:
	movq	%rax, %rbx
	jmp	.L130
	.globl	__gxx_personality_v0
	.section	.gcc_except_table,"a",@progbits
.LLSDA5820:
	.byte	0xff
	.byte	0xff
	.byte	0x1
	.uleb128 .LLSDACSE5820-.LLSDACSB5820
.LLSDACSB5820:
	.uleb128 .LEHB0-.LFB5820
	.uleb128 .LEHE0-.LEHB0
	.uleb128 0
	.uleb128 0
	.uleb128 .LEHB1-.LFB5820
	.uleb128 .LEHE1-.LEHB1
	.uleb128 .L132-.LFB5820
	.uleb128 0
	.uleb128 .LEHB2-.LFB5820
	.uleb128 .LEHE2-.LEHB2
	.uleb128 .L133-.LFB5820
	.uleb128 0
	.uleb128 .LEHB3-.LFB5820
	.uleb128 .LEHE3-.LEHB3
	.uleb128 .L134-.LFB5820
	.uleb128 0
.LLSDACSE5820:
	.section	.text.startup
	.cfi_endproc
	.section	.text.unlikely
	.cfi_startproc
	.cfi_personality 0x3,__gxx_personality_v0
	.cfi_lsda 0x3,.LLSDAC5820
	.type	main.cold.84, @function
main.cold.84:
.LFSB5820:
.L129:
	.cfi_def_cfa_offset 112
	.cfi_offset 3, -56
	.cfi_offset 6, -48
	.cfi_offset 12, -40
	.cfi_offset 13, -32
	.cfi_offset 14, -24
	.cfi_offset 15, -16
	movq	%r15, %rdi
	call	_ZdlPv
.L130:
	movq	%r14, %rdi
	call	_ZdlPv
.L131:
	movq	%rbp, %rdi
	call	_ZdlPv
	movq	%rbx, %rdi
.LEHB4:
	call	_Unwind_Resume
.LEHE4:
	.cfi_endproc
.LFE5820:
	.section	.gcc_except_table
.LLSDAC5820:
	.byte	0xff
	.byte	0xff
	.byte	0x1
	.uleb128 .LLSDACSEC5820-.LLSDACSBC5820
.LLSDACSBC5820:
	.uleb128 .LEHB4-.LCOLDB10
	.uleb128 .LEHE4-.LEHB4
	.uleb128 0
	.uleb128 0
.LLSDACSEC5820:
	.section	.text.unlikely
	.section	.text.startup
	.size	main, .-main
	.section	.text.unlikely
	.size	main.cold.84, .-main.cold.84
.LCOLDE10:
	.section	.text.startup
.LHOTE10:
	.section	.text._ZN3sgl2v14mmapIhLb1ELi4EEC2EPvmiiil,"axG",@progbits,_ZN3sgl2v14mmapIhLb1ELi4EEC5EPvmiiil,comdat
	.align 2
	.p2align 4,,15
	.weak	_ZN3sgl2v14mmapIhLb1ELi4EEC2EPvmiiil
	.type	_ZN3sgl2v14mmapIhLb1ELi4EEC2EPvmiiil, @function
_ZN3sgl2v14mmapIhLb1ELi4EEC2EPvmiiil:
.LFB6345:
	.cfi_startproc
	pushq	%rbp
	.cfi_def_cfa_offset 16
	.cfi_offset 6, -16
	movq	%rdx, %rbp
	movl	%ecx, %edx
	movl	%r8d, %ecx
	pushq	%rbx
	.cfi_def_cfa_offset 24
	.cfi_offset 3, -24
	movl	%r9d, %r8d
	movq	%rdi, %rbx
	movq	%rsi, %rdi
	movq	%rbp, %rsi
	subq	$8, %rsp
	.cfi_def_cfa_offset 32
	movq	32(%rsp), %r9
	call	mmap
	movq	%rbp, 8(%rbx)
	movq	%rax, (%rbx)
	cmpq	$-1, %rax
	je	.L150
	addq	$8, %rsp
	.cfi_remember_state
	.cfi_def_cfa_offset 24
	popq	%rbx
	.cfi_def_cfa_offset 16
	popq	%rbp
	.cfi_def_cfa_offset 8
	ret
.L150:
	.cfi_restore_state
	movl	$16, %edi
	call	__cxa_allocate_exception
	movq	%rax, %rbx
	call	__errno_location
	movq	$_ZTVN3sgl2v110error_codeE+16, (%rbx)
	movl	$_ZN3sgl2v110error_codeD1Ev, %edx
	movq	%rbx, %rdi
	movl	(%rax), %eax
	movl	$_ZTIN3sgl2v110error_codeE, %esi
	movl	%eax, 8(%rbx)
	call	__cxa_throw
	.cfi_endproc
.LFE6345:
	.size	_ZN3sgl2v14mmapIhLb1ELi4EEC2EPvmiiil, .-_ZN3sgl2v14mmapIhLb1ELi4EEC2EPvmiiil
	.weak	_ZN3sgl2v14mmapIhLb1ELi4EEC1EPvmiiil
	.set	_ZN3sgl2v14mmapIhLb1ELi4EEC1EPvmiiil,_ZN3sgl2v14mmapIhLb1ELi4EEC2EPvmiiil
	.section	.text.unlikely
.LCOLDB11:
	.text
.LHOTB11:
	.p2align 4,,15
	.globl	_ZN3sgl2v15fmmapEPKcm
	.type	_ZN3sgl2v15fmmapEPKcm, @function
_ZN3sgl2v15fmmapEPKcm:
.LFB5429:
	.cfi_startproc
	.cfi_personality 0x3,__gxx_personality_v0
	.cfi_lsda 0x3,.LLSDA5429
	pushq	%rbp
	.cfi_def_cfa_offset 16
	.cfi_offset 6, -16
	movl	$384, %ecx
	movq	%rsp, %rbp
	.cfi_def_cfa_register 6
	pushq	%r14
	.cfi_offset 14, -24
	movq	%rdx, %r14
	movl	$66, %edx
	pushq	%rbx
	.cfi_offset 3, -32
	movq	%rdi, %rbx
	leaq	-20(%rbp), %rdi
	subq	$16, %rsp
.LEHB5:
	call	_ZN3sgl2v115file_descriptorC1EPKcij
.LEHE5:
	movl	-20(%rbp), %edi
	movq	%r14, %rsi
	call	ftruncate
	subq	$8, %rsp
	movslq	-20(%rbp), %rdx
	xorl	%r8d, %r8d
	pushq	$1
	movl	$7, %r9d
	movl	%r14d, %ecx
	xorl	%esi, %esi
	movq	%rbx, %rdi
.LEHB6:
	.cfi_escape 0x2e,0x10
	call	_ZN3sgl2v14mmapIhLb1ELi4EEC1EPvmiiil
.LEHE6:
	movl	-20(%rbp), %edi
	popq	%rax
	popq	%rdx
	cmpl	$2, %edi
	jg	.L157
	leaq	-16(%rbp), %rsp
	movq	%rbx, %rax
	popq	%rbx
	popq	%r14
	popq	%rbp
	.cfi_remember_state
	.cfi_def_cfa 7, 8
	ret
	.p2align 4,,10
	.p2align 3
.L157:
	.cfi_restore_state
	call	close
	leaq	-16(%rbp), %rsp
	movq	%rbx, %rax
	popq	%rbx
	popq	%r14
	popq	%rbp
	.cfi_remember_state
	.cfi_def_cfa 7, 8
	ret
.L155:
	.cfi_restore_state
	movq	%rax, %rbx
	jmp	.L153
	.section	.gcc_except_table
.LLSDA5429:
	.byte	0xff
	.byte	0xff
	.byte	0x1
	.uleb128 .LLSDACSE5429-.LLSDACSB5429
.LLSDACSB5429:
	.uleb128 .LEHB5-.LFB5429
	.uleb128 .LEHE5-.LEHB5
	.uleb128 0
	.uleb128 0
	.uleb128 .LEHB6-.LFB5429
	.uleb128 .LEHE6-.LEHB6
	.uleb128 .L155-.LFB5429
	.uleb128 0
.LLSDACSE5429:
	.text
	.cfi_endproc
	.section	.text.unlikely
	.cfi_startproc
	.cfi_personality 0x3,__gxx_personality_v0
	.cfi_lsda 0x3,.LLSDAC5429
	.type	_ZN3sgl2v15fmmapEPKcm.cold.85, @function
_ZN3sgl2v15fmmapEPKcm.cold.85:
.LFSB5429:
.L153:
	.cfi_def_cfa 6, 16
	.cfi_offset 3, -32
	.cfi_offset 6, -16
	.cfi_offset 14, -24
	movl	-20(%rbp), %edi
	cmpl	$2, %edi
	jle	.L154
	call	close
.L154:
	movq	%rbx, %rdi
.LEHB7:
	call	_Unwind_Resume
.LEHE7:
	.cfi_endproc
.LFE5429:
	.section	.gcc_except_table
.LLSDAC5429:
	.byte	0xff
	.byte	0xff
	.byte	0x1
	.uleb128 .LLSDACSEC5429-.LLSDACSBC5429
.LLSDACSBC5429:
	.uleb128 .LEHB7-.LCOLDB11
	.uleb128 .LEHE7-.LEHB7
	.uleb128 0
	.uleb128 0
.LLSDACSEC5429:
	.section	.text.unlikely
	.text
	.size	_ZN3sgl2v15fmmapEPKcm, .-_ZN3sgl2v15fmmapEPKcm
	.section	.text.unlikely
	.size	_ZN3sgl2v15fmmapEPKcm.cold.85, .-_ZN3sgl2v15fmmapEPKcm.cold.85
.LCOLDE11:
	.text
.LHOTE11:
	.section	.text.startup
	.p2align 4,,15
	.type	_GLOBAL__sub_I__ZN3sgl2v124instrumented_base_countsE, @function
_GLOBAL__sub_I__ZN3sgl2v124instrumented_base_countsE:
.LFB6750:
	.cfi_startproc
	subq	$8, %rsp
	.cfi_def_cfa_offset 16
	movl	$_ZStL8__ioinit, %edi
	call	_ZNSt8ios_base4InitC1Ev
	movl	$__dso_handle, %edx
	movl	$_ZStL8__ioinit, %esi
	movl	$_ZNSt8ios_base4InitD1Ev, %edi
	addq	$8, %rsp
	.cfi_def_cfa_offset 8
	jmp	__cxa_atexit
	.cfi_endproc
.LFE6750:
	.size	_GLOBAL__sub_I__ZN3sgl2v124instrumented_base_countsE, .-_GLOBAL__sub_I__ZN3sgl2v124instrumented_base_countsE
	.section	.init_array,"aw"
	.align 8
	.quad	_GLOBAL__sub_I__ZN3sgl2v124instrumented_base_countsE
	.weak	_ZTSN3sgl2v110error_codeE
	.section	.rodata._ZTSN3sgl2v110error_codeE,"aG",@progbits,_ZTSN3sgl2v110error_codeE,comdat
	.align 16
	.type	_ZTSN3sgl2v110error_codeE, @object
	.size	_ZTSN3sgl2v110error_codeE, 22
_ZTSN3sgl2v110error_codeE:
	.string	"N3sgl2v110error_codeE"
	.weak	_ZTIN3sgl2v110error_codeE
	.section	.rodata._ZTIN3sgl2v110error_codeE,"aG",@progbits,_ZTIN3sgl2v110error_codeE,comdat
	.align 8
	.type	_ZTIN3sgl2v110error_codeE, @object
	.size	_ZTIN3sgl2v110error_codeE, 24
_ZTIN3sgl2v110error_codeE:
	.quad	_ZTVN10__cxxabiv120__si_class_type_infoE+16
	.quad	_ZTSN3sgl2v110error_codeE
	.quad	_ZTISt9exception
	.weak	_ZTSN3sgl2v121file_descriptor_errorE
	.section	.rodata._ZTSN3sgl2v121file_descriptor_errorE,"aG",@progbits,_ZTSN3sgl2v121file_descriptor_errorE,comdat
	.align 32
	.type	_ZTSN3sgl2v121file_descriptor_errorE, @object
	.size	_ZTSN3sgl2v121file_descriptor_errorE, 33
_ZTSN3sgl2v121file_descriptor_errorE:
	.string	"N3sgl2v121file_descriptor_errorE"
	.weak	_ZTIN3sgl2v121file_descriptor_errorE
	.section	.rodata._ZTIN3sgl2v121file_descriptor_errorE,"aG",@progbits,_ZTIN3sgl2v121file_descriptor_errorE,comdat
	.align 8
	.type	_ZTIN3sgl2v121file_descriptor_errorE, @object
	.size	_ZTIN3sgl2v121file_descriptor_errorE, 24
_ZTIN3sgl2v121file_descriptor_errorE:
	.quad	_ZTVN10__cxxabiv120__si_class_type_infoE+16
	.quad	_ZTSN3sgl2v121file_descriptor_errorE
	.quad	_ZTISt9exception
	.weak	_ZTSN3sgl2v111mkdir_errorE
	.section	.rodata._ZTSN3sgl2v111mkdir_errorE,"aG",@progbits,_ZTSN3sgl2v111mkdir_errorE,comdat
	.align 16
	.type	_ZTSN3sgl2v111mkdir_errorE, @object
	.size	_ZTSN3sgl2v111mkdir_errorE, 23
_ZTSN3sgl2v111mkdir_errorE:
	.string	"N3sgl2v111mkdir_errorE"
	.weak	_ZTIN3sgl2v111mkdir_errorE
	.section	.rodata._ZTIN3sgl2v111mkdir_errorE,"aG",@progbits,_ZTIN3sgl2v111mkdir_errorE,comdat
	.align 8
	.type	_ZTIN3sgl2v111mkdir_errorE, @object
	.size	_ZTIN3sgl2v111mkdir_errorE, 24
_ZTIN3sgl2v111mkdir_errorE:
	.quad	_ZTVN10__cxxabiv120__si_class_type_infoE+16
	.quad	_ZTSN3sgl2v111mkdir_errorE
	.quad	_ZTISt9exception
	.weak	_ZTVN3sgl2v110error_codeE
	.section	.rodata._ZTVN3sgl2v110error_codeE,"aG",@progbits,_ZTVN3sgl2v110error_codeE,comdat
	.align 8
	.type	_ZTVN3sgl2v110error_codeE, @object
	.size	_ZTVN3sgl2v110error_codeE, 40
_ZTVN3sgl2v110error_codeE:
	.quad	0
	.quad	_ZTIN3sgl2v110error_codeE
	.quad	_ZN3sgl2v110error_codeD1Ev
	.quad	_ZN3sgl2v110error_codeD0Ev
	.quad	_ZNK3sgl2v110error_code4whatEv
	.weak	_ZTVN3sgl2v121file_descriptor_errorE
	.section	.rodata._ZTVN3sgl2v121file_descriptor_errorE,"aG",@progbits,_ZTVN3sgl2v121file_descriptor_errorE,comdat
	.align 8
	.type	_ZTVN3sgl2v121file_descriptor_errorE, @object
	.size	_ZTVN3sgl2v121file_descriptor_errorE, 40
_ZTVN3sgl2v121file_descriptor_errorE:
	.quad	0
	.quad	_ZTIN3sgl2v121file_descriptor_errorE
	.quad	_ZN3sgl2v121file_descriptor_errorD1Ev
	.quad	_ZN3sgl2v121file_descriptor_errorD0Ev
	.quad	_ZNK3sgl2v121file_descriptor_error4whatEv
	.weak	_ZTVN3sgl2v111mkdir_errorE
	.section	.rodata._ZTVN3sgl2v111mkdir_errorE,"aG",@progbits,_ZTVN3sgl2v111mkdir_errorE,comdat
	.align 8
	.type	_ZTVN3sgl2v111mkdir_errorE, @object
	.size	_ZTVN3sgl2v111mkdir_errorE, 40
_ZTVN3sgl2v111mkdir_errorE:
	.quad	0
	.quad	_ZTIN3sgl2v111mkdir_errorE
	.quad	_ZN3sgl2v111mkdir_errorD1Ev
	.quad	_ZN3sgl2v111mkdir_errorD0Ev
	.quad	_ZNK3sgl2v111mkdir_error4whatEv
	.globl	_ZN3sgl2v131instrumented_base_counter_namesE
	.section	.rodata.str1.1
.LC12:
	.string	"n"
.LC13:
	.string	"copy"
.LC14:
	.string	"assignment"
.LC15:
	.string	"destructor"
.LC16:
	.string	"default_constructor"
.LC17:
	.string	"equality"
.LC18:
	.string	"comparison"
.LC19:
	.string	"construction"
	.data
	.align 32
	.type	_ZN3sgl2v131instrumented_base_counter_namesE, @object
	.size	_ZN3sgl2v131instrumented_base_counter_namesE, 64
_ZN3sgl2v131instrumented_base_counter_namesE:
	.quad	.LC12
	.quad	.LC13
	.quad	.LC14
	.quad	.LC15
	.quad	.LC16
	.quad	.LC17
	.quad	.LC18
	.quad	.LC19
	.globl	_ZN3sgl2v124instrumented_base_countsE
	.bss
	.align 32
	.type	_ZN3sgl2v124instrumented_base_countsE, @object
	.size	_ZN3sgl2v124instrumented_base_countsE, 64
_ZN3sgl2v124instrumented_base_countsE:
	.zero	64
	.local	_ZStL8__ioinit
	.comm	_ZStL8__ioinit,1,1
	.section	.rodata.cst8,"aM",@progbits,8
	.align 8
.LC4:
	.long	0
	.long	1138753536
	.hidden	__dso_handle
	.ident	"GCC: (GNU) 8.3.1 20190223 (Red Hat 8.3.1-2)"
	.section	.note.GNU-stack,"",@progbits
